; Function Attrs: mustprogress nofree norecurse nosync nounwind willreturn memory(read, argmem: readwrite, inaccessiblemem: none) uwtable
define internal noundef i32 @g(double %0, ptr noundef readonly captures(none) %1, ptr noundef writeonly captures(none) initializes((0, 16)) %2, ptr readnone captures(none) %3) #5 {
  %5 = load ptr, ptr %1, align 8, !tbaa !12
  %6 = getelementptr inbounds nuw i8, ptr %5, i64 16
  %7 = load ptr, ptr %6, align 8, !tbaa !15
  %8 = load double, ptr %7, align 8, !tbaa !20
  %9 = getelementptr inbounds nuw i8, ptr %7, i64 16
  %10 = load double, ptr %9, align 8, !tbaa !20
  %11 = fadd double %8, -1.000000e-04
  store double %11, ptr %2, align 8, !tbaa !20
  %12 = fadd double %10, -1.000000e-02
  %13 = getelementptr inbounds nuw i8, ptr %2, i64 8
  store double %12, ptr %13, align 8, !tbaa !20
  ret i32 0
}